target datalayout = "e-m:e-p270:32:32-p271:32:32-p272:64:64-i64:64-i128:128-f80:128-n8:16:32:64-S128"
target triple = "x86_64-pc-linux-gnu"

%struct.Fraig_HashTableStruct_t_ = type { ptr, i32, i32 }
%struct.Fraig_ManStruct_t_ = type { ptr, ptr, ptr, ptr, ptr, ptr, ptr, ptr, ptr, i32, i32, i32, i32, i32, i32, i32, i32, i32, i32, i32, i32, i64, i32, i32, i32, i32, i32, ptr, ptr, ptr, ptr, ptr, i32, ptr, ptr, ptr, ptr, ptr, ptr, i32, ptr, ptr, ptr, ptr, i32, i32, i32, i32, i32, i32, i32, i32, i32, i32, i32, i32, i32, i32, i32, i32, i32, i32, i32, i64, i64, i64, i64, i64, i64, i64, i64, i64, i64, i64, i64 }
%struct.Fraig_NodeStruct_t_ = type { i32, i32, i32, i32, i32, i32, i32, ptr, ptr, ptr, ptr, ptr, ptr, ptr, ptr, i32, i32, ptr, ptr, ptr, ptr, ptr, ptr, ptr }

; Function Attrs: nounwind uwtable
define i32 @Fraig_CompareSimInfo(ptr noundef %0, ptr noundef %1, i32 noundef %2, i32 noundef %3) #0 {
  %5 = alloca i32, align 4
  %6 = alloca ptr, align 8
  %7 = alloca ptr, align 8
  %8 = alloca i32, align 4
  %9 = alloca i32, align 4
  %10 = alloca i32, align 4
  %11 = alloca i32, align 4
  store ptr %0, ptr %6, align 8, !tbaa !19
  store ptr %1, ptr %7, align 8, !tbaa !19
  store i32 %2, ptr %8, align 4, !tbaa !3
  store i32 %3, ptr %9, align 4, !tbaa !3
  call void @llvm.lifetime.start.p0(i64 4, ptr %10) #7
  %12 = load i32, ptr %9, align 4, !tbaa !3
  %13 = icmp ne i32 %12, 0
  br i1 %13, label %14, label %50

14:                                               ; preds = %4
  %15 = load ptr, ptr %6, align 8, !tbaa !19
  %16 = getelementptr inbounds nuw %struct.Fraig_NodeStruct_t_, ptr %15, i32 0, i32 15
  %17 = load i32, ptr %16, align 8, !tbaa !44
  %18 = load ptr, ptr %7, align 8, !tbaa !19
  %19 = getelementptr inbounds nuw %struct.Fraig_NodeStruct_t_, ptr %18, i32 0, i32 15
  %20 = load i32, ptr %19, align 8, !tbaa !44
  %21 = icmp ne i32 %17, %20
  br i1 %21, label %22, label %23

22:                                               ; preds = %14
  store i32 0, ptr %5, align 4
  store i32 1, ptr %11, align 4
  br label %87

23:                                               ; preds = %14
  store i32 0, ptr %10, align 4, !tbaa !3
  br label %24

24:                                               ; preds = %46, %23
  %25 = load i32, ptr %10, align 4, !tbaa !3
  %26 = load i32, ptr %8, align 4, !tbaa !3
  %27 = icmp slt i32 %25, %26
  br i1 %27, label %28, label %49

28:                                               ; preds = %24
  %29 = load ptr, ptr %6, align 8, !tbaa !19
  %30 = getelementptr inbounds nuw %struct.Fraig_NodeStruct_t_, ptr %29, i32 0, i32 17
  %31 = load ptr, ptr %30, align 8, !tbaa !51
  %32 = load i32, ptr %10, align 4, !tbaa !3
  %33 = sext i32 %32 to i64
  %34 = getelementptr inbounds i32, ptr %31, i64 %33
  %35 = load i32, ptr %34, align 4, !tbaa !3
  %36 = load ptr, ptr %7, align 8, !tbaa !19
  %37 = getelementptr inbounds nuw %struct.Fraig_NodeStruct_t_, ptr %36, i32 0, i32 17
  %38 = load ptr, ptr %37, align 8, !tbaa !51
  %39 = load i32, ptr %10, align 4, !tbaa !3
  %40 = sext i32 %39 to i64
  %41 = getelementptr inbounds i32, ptr %38, i64 %40
  %42 = load i32, ptr %41, align 4, !tbaa !3
  %43 = icmp ne i32 %35, %42
  br i1 %43, label %44, label %45

44:                                               ; preds = %28
  store i32 0, ptr %5, align 4
  store i32 1, ptr %11, align 4
  br label %87

45:                                               ; preds = %28
  br label %46

46:                                               ; preds = %45
  %47 = load i32, ptr %10, align 4, !tbaa !3
  %48 = add nsw i32 %47, 1
  store i32 %48, ptr %10, align 4, !tbaa !3
  br label %24, !llvm.loop !52

49:                                               ; preds = %24
  br label %86

50:                                               ; preds = %4
  %51 = load ptr, ptr %6, align 8, !tbaa !19
  %52 = getelementptr inbounds nuw %struct.Fraig_NodeStruct_t_, ptr %51, i32 0, i32 16
  %53 = load i32, ptr %52, align 4, !tbaa !53
  %54 = load ptr, ptr %7, align 8, !tbaa !19
  %55 = getelementptr inbounds nuw %struct.Fraig_NodeStruct_t_, ptr %54, i32 0, i32 16
  %56 = load i32, ptr %55, align 4, !tbaa !53
  %57 = icmp ne i32 %53, %56
  br i1 %57, label %58, label %59

58:                                               ; preds = %50
  store i32 0, ptr %5, align 4
  store i32 1, ptr %11, align 4
  br label %87

59:                                               ; preds = %50
  store i32 0, ptr %10, align 4, !tbaa !3
  br label %60

60:                                               ; preds = %82, %59
  %61 = load i32, ptr %10, align 4, !tbaa !3
  %62 = load i32, ptr %8, align 4, !tbaa !3
  %63 = icmp slt i32 %61, %62
  br i1 %63, label %64, label %85

64:                                               ; preds = %60
  %65 = load ptr, ptr %6, align 8, !tbaa !19
  %66 = getelementptr inbounds nuw %struct.Fraig_NodeStruct_t_, ptr %65, i32 0, i32 18
  %67 = load ptr, ptr %66, align 8, !tbaa !54
  %68 = load i32, ptr %10, align 4, !tbaa !3
  %69 = sext i32 %68 to i64
  %70 = getelementptr inbounds i32, ptr %67, i64 %69
  %71 = load i32, ptr %70, align 4, !tbaa !3
  %72 = load ptr, ptr %7, align 8, !tbaa !19
  %73 = getelementptr inbounds nuw %struct.Fraig_NodeStruct_t_, ptr %72, i32 0, i32 18
  %74 = load ptr, ptr %73, align 8, !tbaa !54
  %75 = load i32, ptr %10, align 4, !tbaa !3
  %76 = sext i32 %75 to i64
  %77 = getelementptr inbounds i32, ptr %74, i64 %76
  %78 = load i32, ptr %77, align 4, !tbaa !3
  %79 = icmp ne i32 %71, %78
  br i1 %79, label %80, label %81

80:                                               ; preds = %64
  store i32 0, ptr %5, align 4
  store i32 1, ptr %11, align 4
  br label %87

81:                                               ; preds = %64
  br label %82

82:                                               ; preds = %81
  %83 = load i32, ptr %10, align 4, !tbaa !3
  %84 = add nsw i32 %83, 1
  store i32 %84, ptr %10, align 4, !tbaa !3
  br label %60, !llvm.loop !55

85:                                               ; preds = %60
  br label %86

86:                                               ; preds = %85, %49
  store i32 1, ptr %5, align 4
  store i32 1, ptr %11, align 4
  br label %87

87:                                               ; preds = %86, %80, %58, %44, %22
  call void @llvm.lifetime.end.p0(i64 4, ptr %10) #7
  %88 = load i32, ptr %5, align 4
  ret i32 %88
}

; Function Attrs: nounwind uwtable
define ptr @Fraig_HashTableLookupF0(ptr noundef %0, ptr noundef %1) #0 {
  %3 = alloca ptr, align 8
  %4 = alloca ptr, align 8
  %5 = alloca ptr, align 8
  %6 = alloca ptr, align 8
  %7 = alloca ptr, align 8
  %8 = alloca i32, align 4
  %9 = alloca i32, align 4
  store ptr %0, ptr %4, align 8, !tbaa !17
  store ptr %1, ptr %5, align 8, !tbaa !19
  call void @llvm.lifetime.start.p0(i64 8, ptr %6) #7
  %10 = load ptr, ptr %4, align 8, !tbaa !17
  %11 = getelementptr inbounds nuw %struct.Fraig_ManStruct_t_, ptr %10, i32 0, i32 8
  %12 = load ptr, ptr %11, align 8, !tbaa !58
  store ptr %12, ptr %6, align 8, !tbaa !7
  call void @llvm.lifetime.start.p0(i64 8, ptr %7) #7
  call void @llvm.lifetime.start.p0(i64 4, ptr %8) #7
  %13 = load ptr, ptr %5, align 8, !tbaa !19
  %14 = getelementptr inbounds nuw %struct.Fraig_NodeStruct_t_, ptr %13, i32 0, i32 16
  %15 = load i32, ptr %14, align 4, !tbaa !53
  %16 = load ptr, ptr %6, align 8, !tbaa !7
  %17 = getelementptr inbounds nuw %struct.Fraig_HashTableStruct_t_, ptr %16, i32 0, i32 1
  %18 = load i32, ptr %17, align 8, !tbaa !10
  %19 = urem i32 %15, %18
  store i32 %19, ptr %8, align 4, !tbaa !3
  %20 = load ptr, ptr %6, align 8, !tbaa !7
  %21 = getelementptr inbounds nuw %struct.Fraig_HashTableStruct_t_, ptr %20, i32 0, i32 0
  %22 = load ptr, ptr %21, align 8, !tbaa !13
  %23 = load i32, ptr %8, align 4, !tbaa !3
  %24 = zext i32 %23 to i64
  %25 = getelementptr inbounds nuw ptr, ptr %22, i64 %24
  %26 = load ptr, ptr %25, align 8, !tbaa !19
  store ptr %26, ptr %7, align 8, !tbaa !19
  br label %27

27:                                               ; preds = %41, %2
  %28 = load ptr, ptr %7, align 8, !tbaa !19
  %29 = icmp ne ptr %28, null
  br i1 %29, label %30, label %45

30:                                               ; preds = %27
  %31 = load ptr, ptr %5, align 8, !tbaa !19
  %32 = load ptr, ptr %7, align 8, !tbaa !19
  %33 = load ptr, ptr %4, align 8, !tbaa !17
  %34 = getelementptr inbounds nuw %struct.Fraig_ManStruct_t_, ptr %33, i32 0, i32 24
  %35 = load i32, ptr %34, align 8, !tbaa !46
  %36 = call i32 @Fraig_CompareSimInfo(ptr noundef %31, ptr noundef %32, i32 noundef %35, i32 noundef 0)
  %37 = icmp ne i32 %36, 0
  br i1 %37, label %39, label %38

38:                                               ; preds = %30
  br label %41

39:                                               ; preds = %30
  %40 = load ptr, ptr %7, align 8, !tbaa !19
  store ptr %40, ptr %3, align 8
  store i32 1, ptr %9, align 4
  br label %84

41:                                               ; preds = %38
  %42 = load ptr, ptr %7, align 8, !tbaa !19
  %43 = getelementptr inbounds nuw %struct.Fraig_NodeStruct_t_, ptr %42, i32 0, i32 11
  %44 = load ptr, ptr %43, align 8, !tbaa !49
  store ptr %44, ptr %7, align 8, !tbaa !19
  br label %27, !llvm.loop !59

45:                                               ; preds = %27
  %46 = load ptr, ptr %6, align 8, !tbaa !7
  %47 = getelementptr inbounds nuw %struct.Fraig_HashTableStruct_t_, ptr %46, i32 0, i32 2
  %48 = load i32, ptr %47, align 4, !tbaa !39
  %49 = load ptr, ptr %6, align 8, !tbaa !7
  %50 = getelementptr inbounds nuw %struct.Fraig_HashTableStruct_t_, ptr %49, i32 0, i32 1
  %51 = load i32, ptr %50, align 8, !tbaa !10
  %52 = mul nsw i32 2, %51
  %53 = icmp sge i32 %48, %52
  br i1 %53, label %54, label %63

54:                                               ; preds = %45
  %55 = load ptr, ptr %6, align 8, !tbaa !7
  call void @Fraig_TableResizeF(ptr noundef %55, i32 noundef 0)
  %56 = load ptr, ptr %5, align 8, !tbaa !19
  %57 = getelementptr inbounds nuw %struct.Fraig_NodeStruct_t_, ptr %56, i32 0, i32 16
  %58 = load i32, ptr %57, align 4, !tbaa !53
  %59 = load ptr, ptr %6, align 8, !tbaa !7
  %60 = getelementptr inbounds nuw %struct.Fraig_HashTableStruct_t_, ptr %59, i32 0, i32 1
  %61 = load i32, ptr %60, align 8, !tbaa !10
  %62 = urem i32 %58, %61
  store i32 %62, ptr %8, align 4, !tbaa !3
  br label %63

63:                                               ; preds = %54, %45
  %64 = load ptr, ptr %6, align 8, !tbaa !7
  %65 = getelementptr inbounds nuw %struct.Fraig_HashTableStruct_t_, ptr %64, i32 0, i32 0
  %66 = load ptr, ptr %65, align 8, !tbaa !13
  %67 = load i32, ptr %8, align 4, !tbaa !3
  %68 = zext i32 %67 to i64
  %69 = getelementptr inbounds nuw ptr, ptr %66, i64 %68
  %70 = load ptr, ptr %69, align 8, !tbaa !19
  %71 = load ptr, ptr %5, align 8, !tbaa !19
  %72 = getelementptr inbounds nuw %struct.Fraig_NodeStruct_t_, ptr %71, i32 0, i32 11
  store ptr %70, ptr %72, align 8, !tbaa !49
  %73 = load ptr, ptr %5, align 8, !tbaa !19
  %74 = load ptr, ptr %6, align 8, !tbaa !7
  %75 = getelementptr inbounds nuw %struct.Fraig_HashTableStruct_t_, ptr %74, i32 0, i32 0
  %76 = load ptr, ptr %75, align 8, !tbaa !13
  %77 = load i32, ptr %8, align 4, !tbaa !3
  %78 = zext i32 %77 to i64
  %79 = getelementptr inbounds nuw ptr, ptr %76, i64 %78
  store ptr %73, ptr %79, align 8, !tbaa !19
  %80 = load ptr, ptr %6, align 8, !tbaa !7
  %81 = getelementptr inbounds nuw %struct.Fraig_HashTableStruct_t_, ptr %80, i32 0, i32 2
  %82 = load i32, ptr %81, align 4, !tbaa !39
  %83 = add nsw i32 %82, 1
  store i32 %83, ptr %81, align 4, !tbaa !39
  store ptr null, ptr %3, align 8
  store i32 1, ptr %9, align 4
  br label %84

84:                                               ; preds = %63, %39
  call void @llvm.lifetime.end.p0(i64 4, ptr %8) #7
  call void @llvm.lifetime.end.p0(i64 8, ptr %7) #7
  call void @llvm.lifetime.end.p0(i64 8, ptr %6) #7
  %85 = load ptr, ptr %3, align 8
  ret ptr %85
}