; Function Attrs: nounwind uwtable
define ptr @Fraig_HashTableLookupF0(ptr noundef readonly captures(none) %0, ptr noundef %1) local_unnamed_addr #4 {
  %3 = getelementptr inbounds nuw i8, ptr %0, i64 64
  %4 = load ptr, ptr %3, align 8, !tbaa !53
  %5 = getelementptr inbounds nuw i8, ptr %1, i64 100
  %6 = load i32, ptr %5, align 4, !tbaa !45
  %7 = getelementptr inbounds nuw i8, ptr %4, i64 8
  %8 = load i32, ptr %7, align 8, !tbaa !6
  %9 = urem i32 %6, %8
  %10 = load ptr, ptr %4, align 8, !tbaa !13
  %11 = zext i32 %9 to i64
  %12 = getelementptr inbounds nuw ptr, ptr %10, i64 %11
  %.02333 = load ptr, ptr %12, align 8, !tbaa !29
  %.not34 = icmp eq ptr %.02333, null
  br i1 %.not34, label %._crit_edge, label %.lr.ph

.lr.ph:                                           ; preds = %2
  %13 = getelementptr inbounds nuw i8, ptr %0, i64 136
  %14 = load i32, ptr %13, align 8, !tbaa !44
  %.fr38 = freeze i32 %14
  %15 = icmp sgt i32 %.fr38, 0
  %16 = getelementptr inbounds nuw i8, ptr %1, i64 112
  %wide.trip.count41.i = zext nneg i32 %.fr38 to i64
  br i1 %15, label %.lr.ph.split.us, label %.lr.ph.split

.lr.ph.split.us:                                  ; preds = %.lr.ph, %.loopexit.us
  %.02335.us = phi ptr [ %.023.us, %.loopexit.us ], [ %.02333, %.lr.ph ]
  %17 = getelementptr inbounds nuw i8, ptr %.02335.us, i64 100
  %18 = load i32, ptr %17, align 4, !tbaa !45
  %.not20.i.us = icmp eq i32 %6, %18
  br i1 %.not20.i.us, label %.preheader.i.us, label %.loopexit.us

.preheader.i.us:                                  ; preds = %.lr.ph.split.us
  %19 = load ptr, ptr %16, align 8, !tbaa !46
  %20 = getelementptr inbounds nuw i8, ptr %.02335.us, i64 112
  %21 = load ptr, ptr %20, align 8, !tbaa !46
  br label %22

22:                                               ; preds = %28, %.preheader.i.us
  %indvars.iv38.i.us = phi i64 [ 0, %.preheader.i.us ], [ %indvars.iv.next39.i.us, %28 ]
  %23 = getelementptr inbounds nuw i32, ptr %19, i64 %indvars.iv38.i.us
  %24 = load i32, ptr %23, align 4, !tbaa !41
  %25 = getelementptr inbounds nuw i32, ptr %21, i64 %indvars.iv38.i.us
  %26 = load i32, ptr %25, align 4, !tbaa !41
  %.not21.i.us = icmp eq i32 %24, %26
  br i1 %.not21.i.us, label %28, label %.loopexit.us

.loopexit.us:                                     ; preds = %22, %.lr.ph.split.us
  %27 = getelementptr inbounds nuw i8, ptr %.02335.us, i64 64
  %.023.us = load ptr, ptr %27, align 8, !tbaa !29
  %.not.us = icmp eq ptr %.023.us, null
  br i1 %.not.us, label %._crit_edge, label %.lr.ph.split.us, !llvm.loop !54

28:                                               ; preds = %22
  %indvars.iv.next39.i.us = add nuw nsw i64 %indvars.iv38.i.us, 1
  %exitcond42.not.i.us = icmp eq i64 %indvars.iv.next39.i.us, %wide.trip.count41.i
  br i1 %exitcond42.not.i.us, label %Fraig_CompareSimInfo.exit, label %22, !llvm.loop !49

.lr.ph.split:                                     ; preds = %.lr.ph, %31
  %.02335 = phi ptr [ %.023, %31 ], [ %.02333, %.lr.ph ]
  %29 = getelementptr inbounds nuw i8, ptr %.02335, i64 100
  %30 = load i32, ptr %29, align 4, !tbaa !45
  %.not20.i = icmp eq i32 %6, %30
  br i1 %.not20.i, label %Fraig_CompareSimInfo.exit, label %31

31:                                               ; preds = %.lr.ph.split
  %32 = getelementptr inbounds nuw i8, ptr %.02335, i64 64
  %.023 = load ptr, ptr %32, align 8, !tbaa !29
  %.not = icmp eq ptr %.023, null
  br i1 %.not, label %._crit_edge, label %.lr.ph.split, !llvm.loop !54

._crit_edge:                                      ; preds = %31, %.loopexit.us, %2
  %33 = getelementptr inbounds nuw i8, ptr %4, i64 12
  %34 = load i32, ptr %33, align 4, !tbaa !33
  %35 = shl nsw i32 %8, 1
  %.not25 = icmp slt i32 %34, %35
  br i1 %.not25, label %40, label %36

36:                                               ; preds = %._crit_edge
  tail call fastcc void @Fraig_TableResizeF(ptr noundef nonnull %4, i32 noundef 0)
  %37 = load i32, ptr %5, align 4, !tbaa !45
  %38 = load i32, ptr %7, align 8, !tbaa !6
  %39 = urem i32 %37, %38
  %.pre = load ptr, ptr %4, align 8, !tbaa !13
  %.pre44 = zext i32 %39 to i64
  %.phi.trans.insert = getelementptr inbounds nuw ptr, ptr %.pre, i64 %.pre44
  %.pre45 = load ptr, ptr %.phi.trans.insert, align 8, !tbaa !29
  %.pre46 = load i32, ptr %33, align 4, !tbaa !33
  br label %40

40:                                               ; preds = %36, %._crit_edge
  %41 = phi i32 [ %.pre46, %36 ], [ %34, %._crit_edge ]
  %42 = phi ptr [ %.pre45, %36 ], [ %.02333, %._crit_edge ]
  %.pre-phi = phi i64 [ %.pre44, %36 ], [ %11, %._crit_edge ]
  %43 = phi ptr [ %.pre, %36 ], [ %10, %._crit_edge ]
  %44 = getelementptr inbounds nuw ptr, ptr %43, i64 %.pre-phi
  %45 = getelementptr inbounds nuw i8, ptr %1, i64 64
  store ptr %42, ptr %45, align 8, !tbaa !50
  store ptr %1, ptr %44, align 8, !tbaa !29
  %46 = add nsw i32 %41, 1
  store i32 %46, ptr %33, align 4, !tbaa !33
  br label %Fraig_CompareSimInfo.exit

Fraig_CompareSimInfo.exit:                        ; preds = %.lr.ph.split, %28, %40
  %.02332 = phi ptr [ null, %40 ], [ %.02335.us, %28 ], [ %.02335, %.lr.ph.split ]
  ret ptr %.02332
}